target datalayout = "e-m:e-p270:32:32-p271:32:32-p272:64:64-i64:64-i128:128-f80:128-n8:16:32:64-S128"
target triple = "x86_64-pc-linux-gnu"

%struct.IcuScalar = type { ptr, i8, i32, i8, ptr }

; Function Attrs: nounwind uwtable
define i32 @sqlite3IcuInit(ptr noundef %0) #0 {
  %2 = alloca ptr, align 8
  %3 = alloca i32, align 4
  %4 = alloca i32, align 4
  %5 = alloca ptr, align 8
  store ptr %0, ptr %2, align 8, !tbaa !6
  call void @llvm.lifetime.start.p0(i64 4, ptr %3) #3
  store i32 0, ptr %3, align 4, !tbaa !11
  call void @llvm.lifetime.start.p0(i64 4, ptr %4) #3
  store i32 0, ptr %4, align 4, !tbaa !11
  br label %6

6:                                                ; preds = %43, %1
  %7 = load i32, ptr %3, align 4, !tbaa !11
  %8 = icmp eq i32 %7, 0
  br i1 %8, label %9, label %12

9:                                                ; preds = %6
  %10 = load i32, ptr %4, align 4, !tbaa !11
  %11 = icmp slt i32 %10, 12
  br label %12

12:                                               ; preds = %9, %6
  %13 = phi i1 [ false, %6 ], [ %11, %9 ]
  br i1 %13, label %14, label %46

14:                                               ; preds = %12
  call void @llvm.lifetime.start.p0(i64 8, ptr %5) #3
  %15 = load i32, ptr %4, align 4, !tbaa !11
  %16 = sext i32 %15 to i64
  %17 = getelementptr inbounds [12 x %struct.IcuScalar], ptr @sqlite3IcuInit.scalars, i64 0, i64 %16
  store ptr %17, ptr %5, align 8, !tbaa !13
  %18 = load ptr, ptr %2, align 8, !tbaa !6
  %19 = load ptr, ptr %5, align 8, !tbaa !13
  %20 = getelementptr inbounds nuw %struct.IcuScalar, ptr %19, i32 0, i32 0
  %21 = load ptr, ptr %20, align 8, !tbaa !15
  %22 = load ptr, ptr %5, align 8, !tbaa !13
  %23 = getelementptr inbounds nuw %struct.IcuScalar, ptr %22, i32 0, i32 1
  %24 = load i8, ptr %23, align 8, !tbaa !18
  %25 = zext i8 %24 to i32
  %26 = load ptr, ptr %5, align 8, !tbaa !13
  %27 = getelementptr inbounds nuw %struct.IcuScalar, ptr %26, i32 0, i32 2
  %28 = load i32, ptr %27, align 4, !tbaa !19
  %29 = load ptr, ptr %5, align 8, !tbaa !13
  %30 = getelementptr inbounds nuw %struct.IcuScalar, ptr %29, i32 0, i32 3
  %31 = load i8, ptr %30, align 8, !tbaa !20
  %32 = zext i8 %31 to i32
  %33 = icmp ne i32 %32, 0
  br i1 %33, label %34, label %36

34:                                               ; preds = %14
  %35 = load ptr, ptr %2, align 8, !tbaa !6
  br label %37

36:                                               ; preds = %14
  br label %37

37:                                               ; preds = %36, %34
  %38 = phi ptr [ %35, %34 ], [ null, %36 ]
  %39 = load ptr, ptr %5, align 8, !tbaa !13
  %40 = getelementptr inbounds nuw %struct.IcuScalar, ptr %39, i32 0, i32 4
  %41 = load ptr, ptr %40, align 8, !tbaa !21
  %42 = call i32 @sqlite3_create_function(ptr noundef %18, ptr noundef %21, i32 noundef %25, i32 noundef %28, ptr noundef %38, ptr noundef %41, ptr noundef null, ptr noundef null)
  store i32 %42, ptr %3, align 4, !tbaa !11
  call void @llvm.lifetime.end.p0(i64 8, ptr %5) #3
  br label %43

43:                                               ; preds = %37
  %44 = load i32, ptr %4, align 4, !tbaa !11
  %45 = add nsw i32 %44, 1
  store i32 %45, ptr %4, align 4, !tbaa !11
  br label %6

46:                                               ; preds = %12
  %47 = load i32, ptr %3, align 4, !tbaa !11
  call void @llvm.lifetime.end.p0(i64 4, ptr %4) #3
  call void @llvm.lifetime.end.p0(i64 4, ptr %3) #3
  ret i32 %47
}