; Function Attrs: nounwind uwtable
define i32 @sqlite3IcuInit(ptr noundef %0) local_unnamed_addr #0 {
  br label %2

2:                                                ; preds = %1, %2
  %indvars.iv = phi i64 [ 0, %1 ], [ %indvars.iv.next, %2 ]
  %3 = getelementptr inbounds nuw [12 x %struct.IcuScalar], ptr @sqlite3IcuInit.scalars, i64 0, i64 %indvars.iv
  %4 = load ptr, ptr %3, align 16, !tbaa !6
  %5 = getelementptr inbounds nuw i8, ptr %3, i64 8
  %6 = load i8, ptr %5, align 8, !tbaa !13
  %7 = zext i8 %6 to i32
  %8 = getelementptr inbounds nuw i8, ptr %3, i64 12
  %9 = load i32, ptr %8, align 4, !tbaa !14
  %10 = getelementptr inbounds nuw i8, ptr %3, i64 16
  %11 = load i8, ptr %10, align 16, !tbaa !15
  %.not = icmp eq i8 %11, 0
  %12 = select i1 %.not, ptr null, ptr %0
  %13 = getelementptr inbounds nuw i8, ptr %3, i64 24
  %14 = load ptr, ptr %13, align 8, !tbaa !16
  %15 = tail call i32 @sqlite3_create_function(ptr noundef %0, ptr noundef %4, i32 noundef %7, i32 noundef %9, ptr noundef %12, ptr noundef %14, ptr noundef null, ptr noundef null) #3
  %indvars.iv.next = add nuw nsw i64 %indvars.iv, 1
  %16 = icmp eq i32 %15, 0
  %17 = icmp samesign ult i64 %indvars.iv, 11
  %18 = select i1 %16, i1 %17, i1 false
  br i1 %18, label %2, label %19

19:                                               ; preds = %2
  ret i32 %15
}